target datalayout = "e-m:e-p270:32:32-p271:32:32-p272:64:64-i64:64-i128:128-f80:128-n8:16:32:64-S128"
target triple = "x86_64-pc-linux-gnu"

%struct.CVodeMemRec = type { double, ptr, ptr, i32, i32, i32, double, double, ptr, i32, ptr, ptr, i32, ptr, i32, i32, double, double, ptr, i32, i32, i32, ptr, ptr, ptr, i32, i32, ptr, ptr, ptr, i32, double, i32, i32, double, ptr, ptr, i32, ptr, ptr, i32, i32, i32, double, ptr, ptr, [13 x ptr], ptr, ptr, ptr, ptr, ptr, [13 x ptr], ptr, ptr, ptr, ptr, [13 x ptr], ptr, ptr, ptr, ptr, ptr, i32, [13 x ptr], ptr, ptr, ptr, ptr, ptr, i32, double, i32, i32, i32, i32, i32, double, double, double, double, double, double, double, double, [14 x double], [6 x double], [13 x double], double, double, double, double, double, double, double, double, double, double, double, i32, ptr, i32, i64, i32, i32, i32, i32, i32, double, double, double, i64, i64, i64, i64, i64, i64, i64, i64, i64, ptr, i64, i64, ptr, i64, i64, i64, i64, i64, i64, i32, i64, i64, i64, i64, i64, i64, double, double, double, ptr, ptr, ptr, ptr, ptr, i32, i32, i64, double, double, double, i32, double, i32, i32, i32, i32, i32, i32, i32, i32, i32, i32, i32, i32, i32, i32, i32, i32, ptr, ptr, ptr, i32, [6 x [4 x double]], i32, i64, ptr, i32, ptr, ptr, double, double, double, ptr, ptr, ptr, double, double, i32, i32, i64, ptr, i32, i32, ptr, i32 }

; Function Attrs: nounwind uwtable
define internal void @cvRescale(ptr noundef %0) #0 {
  %2 = alloca ptr, align 8
  %3 = alloca i32, align 4
  %4 = alloca i32, align 4
  %5 = alloca double, align 8
  store ptr %0, ptr %2, align 8, !tbaa !7
  call void @llvm.lifetime.start.p0(i64 4, ptr %3) #8
  call void @llvm.lifetime.start.p0(i64 4, ptr %4) #8
  call void @llvm.lifetime.start.p0(i64 8, ptr %5) #8
  %6 = load ptr, ptr %2, align 8, !tbaa !7
  %7 = getelementptr inbounds nuw %struct.CVodeMemRec, ptr %6, i32 0, i32 81
  %8 = load double, ptr %7, align 8, !tbaa !250
  store double %8, ptr %5, align 8, !tbaa !102
  store i32 1, ptr %3, align 4, !tbaa !3
  br label %9

9:                                                ; preds = %129, %1
  %10 = load i32, ptr %3, align 4, !tbaa !3
  %11 = load ptr, ptr %2, align 8, !tbaa !7
  %12 = getelementptr inbounds nuw %struct.CVodeMemRec, ptr %11, i32 0, i32 72
  %13 = load i32, ptr %12, align 8, !tbaa !119
  %14 = icmp sle i32 %10, %13
  br i1 %14, label %15, label %132

15:                                               ; preds = %9
  %16 = load double, ptr %5, align 8, !tbaa !102
  %17 = load ptr, ptr %2, align 8, !tbaa !7
  %18 = getelementptr inbounds nuw %struct.CVodeMemRec, ptr %17, i32 0, i32 46
  %19 = load i32, ptr %3, align 4, !tbaa !3
  %20 = sext i32 %19 to i64
  %21 = getelementptr inbounds [13 x ptr], ptr %18, i64 0, i64 %20
  %22 = load ptr, ptr %21, align 8, !tbaa !103
  %23 = load ptr, ptr %2, align 8, !tbaa !7
  %24 = getelementptr inbounds nuw %struct.CVodeMemRec, ptr %23, i32 0, i32 46
  %25 = load i32, ptr %3, align 4, !tbaa !3
  %26 = sext i32 %25 to i64
  %27 = getelementptr inbounds [13 x ptr], ptr %24, i64 0, i64 %26
  %28 = load ptr, ptr %27, align 8, !tbaa !103
  call void @N_VScale(double noundef %16, ptr noundef %22, ptr noundef %28)
  %29 = load ptr, ptr %2, align 8, !tbaa !7
  %30 = getelementptr inbounds nuw %struct.CVodeMemRec, ptr %29, i32 0, i32 12
  %31 = load i32, ptr %30, align 8, !tbaa !54
  %32 = icmp ne i32 %31, 0
  br i1 %32, label %33, label %47

33:                                               ; preds = %15
  %34 = load double, ptr %5, align 8, !tbaa !102
  %35 = load ptr, ptr %2, align 8, !tbaa !7
  %36 = getelementptr inbounds nuw %struct.CVodeMemRec, ptr %35, i32 0, i32 52
  %37 = load i32, ptr %3, align 4, !tbaa !3
  %38 = sext i32 %37 to i64
  %39 = getelementptr inbounds [13 x ptr], ptr %36, i64 0, i64 %38
  %40 = load ptr, ptr %39, align 8, !tbaa !103
  %41 = load ptr, ptr %2, align 8, !tbaa !7
  %42 = getelementptr inbounds nuw %struct.CVodeMemRec, ptr %41, i32 0, i32 52
  %43 = load i32, ptr %3, align 4, !tbaa !3
  %44 = sext i32 %43 to i64
  %45 = getelementptr inbounds [13 x ptr], ptr %42, i64 0, i64 %44
  %46 = load ptr, ptr %45, align 8, !tbaa !103
  call void @N_VScale(double noundef %34, ptr noundef %40, ptr noundef %46)
  br label %47

47:                                               ; preds = %33, %15
  %48 = load ptr, ptr %2, align 8, !tbaa !7
  %49 = getelementptr inbounds nuw %struct.CVodeMemRec, ptr %48, i32 0, i32 19
  %50 = load i32, ptr %49, align 8, !tbaa !58
  %51 = icmp ne i32 %50, 0
  br i1 %51, label %52, label %85

52:                                               ; preds = %47
  store i32 0, ptr %4, align 4, !tbaa !3
  br label %53

53:                                               ; preds = %81, %52
  %54 = load i32, ptr %4, align 4, !tbaa !3
  %55 = load ptr, ptr %2, align 8, !tbaa !7
  %56 = getelementptr inbounds nuw %struct.CVodeMemRec, ptr %55, i32 0, i32 20
  %57 = load i32, ptr %56, align 4, !tbaa !184
  %58 = icmp slt i32 %54, %57
  br i1 %58, label %59, label %84

59:                                               ; preds = %53
  %60 = load double, ptr %5, align 8, !tbaa !102
  %61 = load ptr, ptr %2, align 8, !tbaa !7
  %62 = getelementptr inbounds nuw %struct.CVodeMemRec, ptr %61, i32 0, i32 57
  %63 = load i32, ptr %3, align 4, !tbaa !3
  %64 = sext i32 %63 to i64
  %65 = getelementptr inbounds [13 x ptr], ptr %62, i64 0, i64 %64
  %66 = load ptr, ptr %65, align 8, !tbaa !104
  %67 = load i32, ptr %4, align 4, !tbaa !3
  %68 = sext i32 %67 to i64
  %69 = getelementptr inbounds ptr, ptr %66, i64 %68
  %70 = load ptr, ptr %69, align 8, !tbaa !103
  %71 = load ptr, ptr %2, align 8, !tbaa !7
  %72 = getelementptr inbounds nuw %struct.CVodeMemRec, ptr %71, i32 0, i32 57
  %73 = load i32, ptr %3, align 4, !tbaa !3
  %74 = sext i32 %73 to i64
  %75 = getelementptr inbounds [13 x ptr], ptr %72, i64 0, i64 %74
  %76 = load ptr, ptr %75, align 8, !tbaa !104
  %77 = load i32, ptr %4, align 4, !tbaa !3
  %78 = sext i32 %77 to i64
  %79 = getelementptr inbounds ptr, ptr %76, i64 %78
  %80 = load ptr, ptr %79, align 8, !tbaa !103
  call void @N_VScale(double noundef %60, ptr noundef %70, ptr noundef %80)
  br label %81

81:                                               ; preds = %59
  %82 = load i32, ptr %4, align 4, !tbaa !3
  %83 = add nsw i32 %82, 1
  store i32 %83, ptr %4, align 4, !tbaa !3
  br label %53, !llvm.loop !340

84:                                               ; preds = %53
  br label %85

85:                                               ; preds = %84, %47
  %86 = load ptr, ptr %2, align 8, !tbaa !7
  %87 = getelementptr inbounds nuw %struct.CVodeMemRec, ptr %86, i32 0, i32 37
  %88 = load i32, ptr %87, align 8, !tbaa !75
  %89 = icmp ne i32 %88, 0
  br i1 %89, label %90, label %123

90:                                               ; preds = %85
  store i32 0, ptr %4, align 4, !tbaa !3
  br label %91

91:                                               ; preds = %119, %90
  %92 = load i32, ptr %4, align 4, !tbaa !3
  %93 = load ptr, ptr %2, align 8, !tbaa !7
  %94 = getelementptr inbounds nuw %struct.CVodeMemRec, ptr %93, i32 0, i32 20
  %95 = load i32, ptr %94, align 4, !tbaa !184
  %96 = icmp slt i32 %92, %95
  br i1 %96, label %97, label %122

97:                                               ; preds = %91
  %98 = load double, ptr %5, align 8, !tbaa !102
  %99 = load ptr, ptr %2, align 8, !tbaa !7
  %100 = getelementptr inbounds nuw %struct.CVodeMemRec, ptr %99, i32 0, i32 64
  %101 = load i32, ptr %3, align 4, !tbaa !3
  %102 = sext i32 %101 to i64
  %103 = getelementptr inbounds [13 x ptr], ptr %100, i64 0, i64 %102
  %104 = load ptr, ptr %103, align 8, !tbaa !104
  %105 = load i32, ptr %4, align 4, !tbaa !3
  %106 = sext i32 %105 to i64
  %107 = getelementptr inbounds ptr, ptr %104, i64 %106
  %108 = load ptr, ptr %107, align 8, !tbaa !103
  %109 = load ptr, ptr %2, align 8, !tbaa !7
  %110 = getelementptr inbounds nuw %struct.CVodeMemRec, ptr %109, i32 0, i32 64
  %111 = load i32, ptr %3, align 4, !tbaa !3
  %112 = sext i32 %111 to i64
  %113 = getelementptr inbounds [13 x ptr], ptr %110, i64 0, i64 %112
  %114 = load ptr, ptr %113, align 8, !tbaa !104
  %115 = load i32, ptr %4, align 4, !tbaa !3
  %116 = sext i32 %115 to i64
  %117 = getelementptr inbounds ptr, ptr %114, i64 %116
  %118 = load ptr, ptr %117, align 8, !tbaa !103
  call void @N_VScale(double noundef %98, ptr noundef %108, ptr noundef %118)
  br label %119

119:                                              ; preds = %97
  %120 = load i32, ptr %4, align 4, !tbaa !3
  %121 = add nsw i32 %120, 1
  store i32 %121, ptr %4, align 4, !tbaa !3
  br label %91, !llvm.loop !341

122:                                              ; preds = %91
  br label %123

123:                                              ; preds = %122, %85
  %124 = load ptr, ptr %2, align 8, !tbaa !7
  %125 = getelementptr inbounds nuw %struct.CVodeMemRec, ptr %124, i32 0, i32 81
  %126 = load double, ptr %125, align 8, !tbaa !250
  %127 = load double, ptr %5, align 8, !tbaa !102
  %128 = fmul double %127, %126
  store double %128, ptr %5, align 8, !tbaa !102
  br label %129

129:                                              ; preds = %123
  %130 = load i32, ptr %3, align 4, !tbaa !3
  %131 = add nsw i32 %130, 1
  store i32 %131, ptr %3, align 4, !tbaa !3
  br label %9, !llvm.loop !342

132:                                              ; preds = %9
  %133 = load ptr, ptr %2, align 8, !tbaa !7
  %134 = getelementptr inbounds nuw %struct.CVodeMemRec, ptr %133, i32 0, i32 82
  %135 = load double, ptr %134, align 8, !tbaa !245
  %136 = load ptr, ptr %2, align 8, !tbaa !7
  %137 = getelementptr inbounds nuw %struct.CVodeMemRec, ptr %136, i32 0, i32 81
  %138 = load double, ptr %137, align 8, !tbaa !250
  %139 = fmul double %135, %138
  %140 = load ptr, ptr %2, align 8, !tbaa !7
  %141 = getelementptr inbounds nuw %struct.CVodeMemRec, ptr %140, i32 0, i32 78
  store double %139, ptr %141, align 8, !tbaa !244
  %142 = load ptr, ptr %2, align 8, !tbaa !7
  %143 = getelementptr inbounds nuw %struct.CVodeMemRec, ptr %142, i32 0, i32 78
  %144 = load double, ptr %143, align 8, !tbaa !244
  %145 = load ptr, ptr %2, align 8, !tbaa !7
  %146 = getelementptr inbounds nuw %struct.CVodeMemRec, ptr %145, i32 0, i32 80
  store double %144, ptr %146, align 8, !tbaa !144
  %147 = load ptr, ptr %2, align 8, !tbaa !7
  %148 = getelementptr inbounds nuw %struct.CVodeMemRec, ptr %147, i32 0, i32 78
  %149 = load double, ptr %148, align 8, !tbaa !244
  %150 = load ptr, ptr %2, align 8, !tbaa !7
  %151 = getelementptr inbounds nuw %struct.CVodeMemRec, ptr %150, i32 0, i32 82
  store double %149, ptr %151, align 8, !tbaa !245
  %152 = load ptr, ptr %2, align 8, !tbaa !7
  %153 = getelementptr inbounds nuw %struct.CVodeMemRec, ptr %152, i32 0, i32 174
  store i32 0, ptr %153, align 8, !tbaa !140
  call void @llvm.lifetime.end.p0(i64 8, ptr %5) #8
  call void @llvm.lifetime.end.p0(i64 4, ptr %4) #8
  call void @llvm.lifetime.end.p0(i64 4, ptr %3) #8
  ret void
}