; Function Attrs: nounwind uwtable
define internal fastcc void @cvRescale(ptr noundef nonnull captures(none) %0) unnamed_addr #0 {
  %2 = getelementptr inbounds nuw i8, ptr %0, i64 968
  %3 = getelementptr inbounds nuw i8, ptr %0, i64 912
  %4 = load i32, ptr %3, align 8, !tbaa !85
  %.not56 = icmp slt i32 %4, 1
  %.pre = load double, ptr %2, align 8, !tbaa !231
  br i1 %.not56, label %._crit_edge, label %.lr.ph59

.lr.ph59:                                         ; preds = %1
  %5 = getelementptr inbounds nuw i8, ptr %0, i64 320
  %6 = getelementptr inbounds nuw i8, ptr %0, i64 88
  %7 = getelementptr inbounds nuw i8, ptr %0, i64 464
  %8 = getelementptr inbounds nuw i8, ptr %0, i64 136
  %9 = getelementptr inbounds nuw i8, ptr %0, i64 140
  %10 = getelementptr inbounds nuw i8, ptr %0, i64 600
  %11 = getelementptr inbounds nuw i8, ptr %0, i64 256
  %12 = getelementptr inbounds nuw i8, ptr %0, i64 752
  br label %13

13:                                               ; preds = %.lr.ph59, %.loopexit
  %indvars.iv64 = phi i64 [ 1, %.lr.ph59 ], [ %indvars.iv.next65, %.loopexit ]
  %.058 = phi double [ %.pre, %.lr.ph59 ], [ %44, %.loopexit ]
  %14 = getelementptr inbounds nuw [13 x ptr], ptr %5, i64 0, i64 %indvars.iv64
  %15 = load ptr, ptr %14, align 8, !tbaa !46
  tail call void @N_VScale(double noundef %.058, ptr noundef %15, ptr noundef %15) #13
  %16 = load i32, ptr %6, align 8, !tbaa !125
  %.not48 = icmp eq i32 %16, 0
  br i1 %.not48, label %20, label %17

17:                                               ; preds = %13
  %18 = getelementptr inbounds nuw [13 x ptr], ptr %7, i64 0, i64 %indvars.iv64
  %19 = load ptr, ptr %18, align 8, !tbaa !46
  tail call void @N_VScale(double noundef %.058, ptr noundef %19, ptr noundef %19) #13
  br label %20

20:                                               ; preds = %17, %13
  %21 = load i32, ptr %8, align 8, !tbaa !144
  %.not49 = icmp eq i32 %21, 0
  br i1 %.not49, label %.loopexit52, label %.preheader51

.preheader51:                                     ; preds = %20
  %22 = load i32, ptr %9, align 4, !tbaa !133
  %23 = icmp sgt i32 %22, 0
  br i1 %23, label %.lr.ph, label %.loopexit52

.lr.ph:                                           ; preds = %.preheader51
  %24 = getelementptr inbounds nuw [13 x ptr], ptr %10, i64 0, i64 %indvars.iv64
  br label %25

25:                                               ; preds = %.lr.ph, %25
  %indvars.iv = phi i64 [ 0, %.lr.ph ], [ %indvars.iv.next, %25 ]
  %26 = load ptr, ptr %24, align 8, !tbaa !137
  %27 = getelementptr inbounds nuw ptr, ptr %26, i64 %indvars.iv
  %28 = load ptr, ptr %27, align 8, !tbaa !46
  tail call void @N_VScale(double noundef %.058, ptr noundef %28, ptr noundef %28) #13
  %indvars.iv.next = add nuw nsw i64 %indvars.iv, 1
  %29 = load i32, ptr %9, align 4, !tbaa !133
  %30 = sext i32 %29 to i64
  %31 = icmp slt i64 %indvars.iv.next, %30
  br i1 %31, label %25, label %.loopexit52, !llvm.loop !408

.loopexit52:                                      ; preds = %25, %.preheader51, %20
  %32 = load i32, ptr %11, align 8, !tbaa !184
  %.not50 = icmp eq i32 %32, 0
  br i1 %.not50, label %.loopexit, label %.preheader

.preheader:                                       ; preds = %.loopexit52
  %33 = load i32, ptr %9, align 4, !tbaa !133
  %34 = icmp sgt i32 %33, 0
  br i1 %34, label %.lr.ph55, label %.loopexit

.lr.ph55:                                         ; preds = %.preheader
  %35 = getelementptr inbounds nuw [13 x ptr], ptr %12, i64 0, i64 %indvars.iv64
  br label %36

36:                                               ; preds = %.lr.ph55, %36
  %indvars.iv61 = phi i64 [ 0, %.lr.ph55 ], [ %indvars.iv.next62, %36 ]
  %37 = load ptr, ptr %35, align 8, !tbaa !137
  %38 = getelementptr inbounds nuw ptr, ptr %37, i64 %indvars.iv61
  %39 = load ptr, ptr %38, align 8, !tbaa !46
  tail call void @N_VScale(double noundef %.058, ptr noundef %39, ptr noundef %39) #13
  %indvars.iv.next62 = add nuw nsw i64 %indvars.iv61, 1
  %40 = load i32, ptr %9, align 4, !tbaa !133
  %41 = sext i32 %40 to i64
  %42 = icmp slt i64 %indvars.iv.next62, %41
  br i1 %42, label %36, label %.loopexit, !llvm.loop !409

.loopexit:                                        ; preds = %36, %.preheader, %.loopexit52
  %43 = load double, ptr %2, align 8, !tbaa !231
  %44 = fmul double %.058, %43
  %indvars.iv.next65 = add nuw nsw i64 %indvars.iv64, 1
  %45 = load i32, ptr %3, align 8, !tbaa !85
  %46 = sext i32 %45 to i64
  %.not.not = icmp slt i64 %indvars.iv64, %46
  br i1 %.not.not, label %13, label %._crit_edge, !llvm.loop !410

._crit_edge:                                      ; preds = %.loopexit, %1
  %47 = phi double [ %.pre, %1 ], [ %43, %.loopexit ]
  %48 = getelementptr inbounds nuw i8, ptr %0, i64 976
  %49 = load double, ptr %48, align 8, !tbaa !225
  %50 = fmul double %49, %47
  %51 = getelementptr inbounds nuw i8, ptr %0, i64 944
  store double %50, ptr %51, align 8, !tbaa !222
  %52 = getelementptr inbounds nuw i8, ptr %0, i64 960
  store double %50, ptr %52, align 8, !tbaa !100
  store double %50, ptr %48, align 8, !tbaa !225
  %53 = getelementptr inbounds nuw i8, ptr %0, i64 2048
  store i32 0, ptr %53, align 8, !tbaa !97
  ret void
}